; Function Attrs: mustprogress uwtable
define noundef zeroext i1 @_ZNK6casadi8OptiNode13is_parametricERKNS_2MXE(ptr noundef nonnull align 8 dereferenceable(672) %0, ptr noundef nonnull align 8 dereferenceable(8) %1) local_unnamed_addr #3 align 2 personality ptr @__gxx_personality_v0 {
  %3 = alloca %"class.std::vector.11", align 8
  call void @_ZNK6casadi8OptiNode6symvarERKNS_2MXENS_12VariableTypeE(ptr dead_on_unwind nonnull writable sret(%"class.std::vector.11") align 8 %3, ptr noundef nonnull align 8 dereferenceable(672) %0, ptr noundef nonnull align 8 dereferenceable(8) %1, i32 noundef 0)
  %4 = load ptr, ptr %3, align 8
  %5 = getelementptr inbounds i8, ptr %3, i64 8
  %6 = load ptr, ptr %5, align 8
  %7 = icmp eq ptr %4, %6
  br i1 %7, label %_ZSt8_DestroyIPN6casadi2MXES1_EvT_S3_RSaIT0_E.exit.i, label %.lr.ph.i.i.i.i

.lr.ph.i.i.i.i:                                   ; preds = %2, %.lr.ph.i.i.i.i
  %.05.i.i.i.i = phi ptr [ %8, %.lr.ph.i.i.i.i ], [ %4, %2 ]
  call void @_ZN6casadi2MXD1Ev(ptr noundef nonnull align 8 dereferenceable(8) %.05.i.i.i.i) #21
  %8 = getelementptr inbounds i8, ptr %.05.i.i.i.i, i64 8
  %.not.i.i.i.i = icmp eq ptr %8, %6
  br i1 %.not.i.i.i.i, label %_ZSt8_DestroyIPN6casadi2MXES1_EvT_S3_RSaIT0_E.exitthread-pre-split.i, label %.lr.ph.i.i.i.i, !llvm.loop !36

_ZSt8_DestroyIPN6casadi2MXES1_EvT_S3_RSaIT0_E.exitthread-pre-split.i: ; preds = %.lr.ph.i.i.i.i
  %.pr.i = load ptr, ptr %3, align 8
  br label %_ZSt8_DestroyIPN6casadi2MXES1_EvT_S3_RSaIT0_E.exit.i

_ZSt8_DestroyIPN6casadi2MXES1_EvT_S3_RSaIT0_E.exit.i: ; preds = %_ZSt8_DestroyIPN6casadi2MXES1_EvT_S3_RSaIT0_E.exitthread-pre-split.i, %2
  %9 = phi ptr [ %.pr.i, %_ZSt8_DestroyIPN6casadi2MXES1_EvT_S3_RSaIT0_E.exitthread-pre-split.i ], [ %4, %2 ]
  %.not.i.i.i = icmp eq ptr %9, null
  br i1 %.not.i.i.i, label %_ZNSt6vectorIN6casadi2MXESaIS1_EED2Ev.exit, label %10

10:                                               ; preds = %_ZSt8_DestroyIPN6casadi2MXES1_EvT_S3_RSaIT0_E.exit.i
  call void @_ZdlPv(ptr noundef nonnull %9) #22
  br label %_ZNSt6vectorIN6casadi2MXESaIS1_EED2Ev.exit

_ZNSt6vectorIN6casadi2MXESaIS1_EED2Ev.exit:       ; preds = %_ZSt8_DestroyIPN6casadi2MXES1_EvT_S3_RSaIT0_E.exit.i, %10
  ret i1 %7
}